target datalayout = "e-m:e-p270:32:32-p271:32:32-p272:64:64-i64:64-i128:128-f80:128-n8:16:32:64-S128"
target triple = "x86_64-pc-linux-gnu"

%struct.lean_object = type { i32, i32 }

; Function Attrs: alwaysinline nounwind uwtable
define internal void @lean_dec_ref(ptr noundef %0) #0 {
  %2 = alloca ptr, align 8
  store ptr %0, ptr %2, align 8, !tbaa !4
  %3 = load ptr, ptr %2, align 8, !tbaa !4
  %4 = getelementptr inbounds nuw %struct.lean_object, ptr %3, i32 0, i32 0
  %5 = load i32, ptr %4, align 4, !tbaa !13
  %6 = icmp sgt i32 %5, 1
  %7 = zext i1 %6 to i32
  %8 = sext i32 %7 to i64
  %9 = call i64 @llvm.expect.i64(i64 %8, i64 1)
  %10 = icmp ne i64 %9, 0
  br i1 %10, label %11, label %16

11:                                               ; preds = %1
  %12 = load ptr, ptr %2, align 8, !tbaa !4
  %13 = getelementptr inbounds nuw %struct.lean_object, ptr %12, i32 0, i32 0
  %14 = load i32, ptr %13, align 4, !tbaa !13
  %15 = add i32 %14, -1
  store i32 %15, ptr %13, align 4, !tbaa !13
  br label %24

16:                                               ; preds = %1
  %17 = load ptr, ptr %2, align 8, !tbaa !4
  %18 = getelementptr inbounds nuw %struct.lean_object, ptr %17, i32 0, i32 0
  %19 = load i32, ptr %18, align 4, !tbaa !13
  %20 = icmp ne i32 %19, 0
  br i1 %20, label %21, label %23

21:                                               ; preds = %16
  %22 = load ptr, ptr %2, align 8, !tbaa !4
  call void @lean_dec_ref_cold(ptr noundef %22)
  br label %23

23:                                               ; preds = %21, %16
  br label %24

24:                                               ; preds = %23, %11
  ret void
}

; Function Attrs: alwaysinline nounwind uwtable
define internal zeroext i1 @lean_is_scalar(ptr noundef %0) #0 {
  %2 = alloca ptr, align 8
  store ptr %0, ptr %2, align 8, !tbaa !4
  %3 = load ptr, ptr %2, align 8, !tbaa !4
  %4 = ptrtoint ptr %3 to i64
  %5 = and i64 %4, 1
  %6 = icmp eq i64 %5, 1
  ret i1 %6
}

; Function Attrs: alwaysinline nounwind uwtable
define internal void @lean_dec(ptr noundef %0) #0 {
  %2 = alloca ptr, align 8
  store ptr %0, ptr %2, align 8, !tbaa !4
  %3 = load ptr, ptr %2, align 8, !tbaa !4
  %4 = call zeroext i1 @lean_is_scalar(ptr noundef %3)
  br i1 %4, label %7, label %5

5:                                                ; preds = %1
  %6 = load ptr, ptr %2, align 8, !tbaa !4
  call void @lean_dec_ref(ptr noundef %6)
  br label %7

7:                                                ; preds = %5, %1
  ret void
}

; Function Attrs: nounwind uwtable
define ptr @l_Lean_Elab_Tactic_BVDecide_Frontend_Normalize_bv__concat__extract___lambda__1___boxed(ptr noundef %0) #1 {
  %2 = alloca ptr, align 8
  %3 = alloca ptr, align 8
  %4 = alloca ptr, align 8
  %5 = alloca ptr, align 8
  %6 = alloca ptr, align 8
  %7 = alloca ptr, align 8
  %8 = alloca ptr, align 8
  %9 = alloca ptr, align 8
  %10 = alloca ptr, align 8
  %11 = alloca ptr, align 8
  %12 = alloca ptr, align 8
  %13 = alloca ptr, align 8
  %14 = alloca ptr, align 8
  %15 = alloca ptr, align 8
  %16 = alloca ptr, align 8
  %17 = alloca ptr, align 8
  %18 = alloca ptr, align 8
  %19 = alloca ptr, align 8
  %20 = alloca ptr, align 8
  store ptr %0, ptr %2, align 8, !tbaa !15
  call void @llvm.lifetime.start.p0(i64 8, ptr %3) #7
  %21 = load ptr, ptr %2, align 8, !tbaa !15
  %22 = getelementptr inbounds ptr, ptr %21, i64 0
  %23 = load ptr, ptr %22, align 8, !tbaa !4
  store ptr %23, ptr %3, align 8, !tbaa !4
  call void @llvm.lifetime.start.p0(i64 8, ptr %4) #7
  %24 = load ptr, ptr %2, align 8, !tbaa !15
  %25 = getelementptr inbounds ptr, ptr %24, i64 1
  %26 = load ptr, ptr %25, align 8, !tbaa !4
  store ptr %26, ptr %4, align 8, !tbaa !4
  call void @llvm.lifetime.start.p0(i64 8, ptr %5) #7
  %27 = load ptr, ptr %2, align 8, !tbaa !15
  %28 = getelementptr inbounds ptr, ptr %27, i64 2
  %29 = load ptr, ptr %28, align 8, !tbaa !4
  store ptr %29, ptr %5, align 8, !tbaa !4
  call void @llvm.lifetime.start.p0(i64 8, ptr %6) #7
  %30 = load ptr, ptr %2, align 8, !tbaa !15
  %31 = getelementptr inbounds ptr, ptr %30, i64 3
  %32 = load ptr, ptr %31, align 8, !tbaa !4
  store ptr %32, ptr %6, align 8, !tbaa !4
  call void @llvm.lifetime.start.p0(i64 8, ptr %7) #7
  %33 = load ptr, ptr %2, align 8, !tbaa !15
  %34 = getelementptr inbounds ptr, ptr %33, i64 4
  %35 = load ptr, ptr %34, align 8, !tbaa !4
  store ptr %35, ptr %7, align 8, !tbaa !4
  call void @llvm.lifetime.start.p0(i64 8, ptr %8) #7
  %36 = load ptr, ptr %2, align 8, !tbaa !15
  %37 = getelementptr inbounds ptr, ptr %36, i64 5
  %38 = load ptr, ptr %37, align 8, !tbaa !4
  store ptr %38, ptr %8, align 8, !tbaa !4
  call void @llvm.lifetime.start.p0(i64 8, ptr %9) #7
  %39 = load ptr, ptr %2, align 8, !tbaa !15
  %40 = getelementptr inbounds ptr, ptr %39, i64 6
  %41 = load ptr, ptr %40, align 8, !tbaa !4
  store ptr %41, ptr %9, align 8, !tbaa !4
  call void @llvm.lifetime.start.p0(i64 8, ptr %10) #7
  %42 = load ptr, ptr %2, align 8, !tbaa !15
  %43 = getelementptr inbounds ptr, ptr %42, i64 7
  %44 = load ptr, ptr %43, align 8, !tbaa !4
  store ptr %44, ptr %10, align 8, !tbaa !4
  call void @llvm.lifetime.start.p0(i64 8, ptr %11) #7
  %45 = load ptr, ptr %2, align 8, !tbaa !15
  %46 = getelementptr inbounds ptr, ptr %45, i64 8
  %47 = load ptr, ptr %46, align 8, !tbaa !4
  store ptr %47, ptr %11, align 8, !tbaa !4
  call void @llvm.lifetime.start.p0(i64 8, ptr %12) #7
  %48 = load ptr, ptr %2, align 8, !tbaa !15
  %49 = getelementptr inbounds ptr, ptr %48, i64 9
  %50 = load ptr, ptr %49, align 8, !tbaa !4
  store ptr %50, ptr %12, align 8, !tbaa !4
  call void @llvm.lifetime.start.p0(i64 8, ptr %13) #7
  %51 = load ptr, ptr %2, align 8, !tbaa !15
  %52 = getelementptr inbounds ptr, ptr %51, i64 10
  %53 = load ptr, ptr %52, align 8, !tbaa !4
  store ptr %53, ptr %13, align 8, !tbaa !4
  call void @llvm.lifetime.start.p0(i64 8, ptr %14) #7
  %54 = load ptr, ptr %2, align 8, !tbaa !15
  %55 = getelementptr inbounds ptr, ptr %54, i64 11
  %56 = load ptr, ptr %55, align 8, !tbaa !4
  store ptr %56, ptr %14, align 8, !tbaa !4
  call void @llvm.lifetime.start.p0(i64 8, ptr %15) #7
  %57 = load ptr, ptr %2, align 8, !tbaa !15
  %58 = getelementptr inbounds ptr, ptr %57, i64 12
  %59 = load ptr, ptr %58, align 8, !tbaa !4
  store ptr %59, ptr %15, align 8, !tbaa !4
  call void @llvm.lifetime.start.p0(i64 8, ptr %16) #7
  %60 = load ptr, ptr %2, align 8, !tbaa !15
  %61 = getelementptr inbounds ptr, ptr %60, i64 13
  %62 = load ptr, ptr %61, align 8, !tbaa !4
  store ptr %62, ptr %16, align 8, !tbaa !4
  call void @llvm.lifetime.start.p0(i64 8, ptr %17) #7
  %63 = load ptr, ptr %2, align 8, !tbaa !15
  %64 = getelementptr inbounds ptr, ptr %63, i64 14
  %65 = load ptr, ptr %64, align 8, !tbaa !4
  store ptr %65, ptr %17, align 8, !tbaa !4
  call void @llvm.lifetime.start.p0(i64 8, ptr %18) #7
  %66 = load ptr, ptr %2, align 8, !tbaa !15
  %67 = getelementptr inbounds ptr, ptr %66, i64 15
  %68 = load ptr, ptr %67, align 8, !tbaa !4
  store ptr %68, ptr %18, align 8, !tbaa !4
  call void @llvm.lifetime.start.p0(i64 8, ptr %19) #7
  %69 = load ptr, ptr %2, align 8, !tbaa !15
  %70 = getelementptr inbounds ptr, ptr %69, i64 16
  %71 = load ptr, ptr %70, align 8, !tbaa !4
  store ptr %71, ptr %19, align 8, !tbaa !4
  br label %72

72:                                               ; preds = %1
  call void @llvm.lifetime.start.p0(i64 8, ptr %20) #7
  %73 = load ptr, ptr %3, align 8, !tbaa !4
  %74 = load ptr, ptr %4, align 8, !tbaa !4
  %75 = load ptr, ptr %5, align 8, !tbaa !4
  %76 = load ptr, ptr %6, align 8, !tbaa !4
  %77 = load ptr, ptr %7, align 8, !tbaa !4
  %78 = load ptr, ptr %8, align 8, !tbaa !4
  %79 = load ptr, ptr %9, align 8, !tbaa !4
  %80 = load ptr, ptr %10, align 8, !tbaa !4
  %81 = load ptr, ptr %11, align 8, !tbaa !4
  %82 = load ptr, ptr %12, align 8, !tbaa !4
  %83 = load ptr, ptr %13, align 8, !tbaa !4
  %84 = load ptr, ptr %14, align 8, !tbaa !4
  %85 = load ptr, ptr %15, align 8, !tbaa !4
  %86 = load ptr, ptr %16, align 8, !tbaa !4
  %87 = load ptr, ptr %17, align 8, !tbaa !4
  %88 = load ptr, ptr %18, align 8, !tbaa !4
  %89 = load ptr, ptr %19, align 8, !tbaa !4
  %90 = call ptr @l_Lean_Elab_Tactic_BVDecide_Frontend_Normalize_bv__concat__extract___lambda__1(ptr noundef %73, ptr noundef %74, ptr noundef %75, ptr noundef %76, ptr noundef %77, ptr noundef %78, ptr noundef %79, ptr noundef %80, ptr noundef %81, ptr noundef %82, ptr noundef %83, ptr noundef %84, ptr noundef %85, ptr noundef %86, ptr noundef %87, ptr noundef %88, ptr noundef %89)
  store ptr %90, ptr %20, align 8, !tbaa !4
  %91 = load ptr, ptr %14, align 8, !tbaa !4
  call void @lean_dec(ptr noundef %91)
  %92 = load ptr, ptr %13, align 8, !tbaa !4
  call void @lean_dec(ptr noundef %92)
  %93 = load ptr, ptr %12, align 8, !tbaa !4
  call void @lean_dec(ptr noundef %93)
  %94 = load ptr, ptr %11, align 8, !tbaa !4
  call void @lean_dec(ptr noundef %94)
  %95 = load ptr, ptr %4, align 8, !tbaa !4
  call void @lean_dec(ptr noundef %95)
  %96 = load ptr, ptr %3, align 8, !tbaa !4
  call void @lean_dec(ptr noundef %96)
  %97 = load ptr, ptr %20, align 8, !tbaa !4
  call void @llvm.lifetime.end.p0(i64 8, ptr %20) #7
  call void @llvm.lifetime.end.p0(i64 8, ptr %19) #7
  call void @llvm.lifetime.end.p0(i64 8, ptr %18) #7
  call void @llvm.lifetime.end.p0(i64 8, ptr %17) #7
  call void @llvm.lifetime.end.p0(i64 8, ptr %16) #7
  call void @llvm.lifetime.end.p0(i64 8, ptr %15) #7
  call void @llvm.lifetime.end.p0(i64 8, ptr %14) #7
  call void @llvm.lifetime.end.p0(i64 8, ptr %13) #7
  call void @llvm.lifetime.end.p0(i64 8, ptr %12) #7
  call void @llvm.lifetime.end.p0(i64 8, ptr %11) #7
  call void @llvm.lifetime.end.p0(i64 8, ptr %10) #7
  call void @llvm.lifetime.end.p0(i64 8, ptr %9) #7
  call void @llvm.lifetime.end.p0(i64 8, ptr %8) #7
  call void @llvm.lifetime.end.p0(i64 8, ptr %7) #7
  call void @llvm.lifetime.end.p0(i64 8, ptr %6) #7
  call void @llvm.lifetime.end.p0(i64 8, ptr %5) #7
  call void @llvm.lifetime.end.p0(i64 8, ptr %4) #7
  call void @llvm.lifetime.end.p0(i64 8, ptr %3) #7
  ret ptr %97
}