; Function Attrs: nounwind uwtable
define ptr @l_Lean_Elab_Tactic_BVDecide_Frontend_Normalize_bv__concat__extract___lambda__1___boxed(ptr noundef readonly captures(none) %0) local_unnamed_addr #0 {
  %2 = load ptr, ptr %0, align 8, !tbaa !4
  %3 = getelementptr inbounds nuw i8, ptr %0, i64 8
  %4 = load ptr, ptr %3, align 8, !tbaa !4
  %5 = getelementptr inbounds nuw i8, ptr %0, i64 16
  %6 = load ptr, ptr %5, align 8, !tbaa !4
  %7 = getelementptr inbounds nuw i8, ptr %0, i64 24
  %8 = load ptr, ptr %7, align 8, !tbaa !4
  %9 = getelementptr inbounds nuw i8, ptr %0, i64 32
  %10 = load ptr, ptr %9, align 8, !tbaa !4
  %11 = getelementptr inbounds nuw i8, ptr %0, i64 40
  %12 = load ptr, ptr %11, align 8, !tbaa !4
  %13 = getelementptr inbounds nuw i8, ptr %0, i64 48
  %14 = load ptr, ptr %13, align 8, !tbaa !4
  %15 = getelementptr inbounds nuw i8, ptr %0, i64 56
  %16 = load ptr, ptr %15, align 8, !tbaa !4
  %17 = getelementptr inbounds nuw i8, ptr %0, i64 64
  %18 = load ptr, ptr %17, align 8, !tbaa !4
  %19 = getelementptr inbounds nuw i8, ptr %0, i64 72
  %20 = load ptr, ptr %19, align 8, !tbaa !4
  %21 = getelementptr inbounds nuw i8, ptr %0, i64 80
  %22 = load ptr, ptr %21, align 8, !tbaa !4
  %23 = getelementptr inbounds nuw i8, ptr %0, i64 88
  %24 = load ptr, ptr %23, align 8, !tbaa !4
  %25 = getelementptr inbounds nuw i8, ptr %0, i64 96
  %26 = load ptr, ptr %25, align 8, !tbaa !4
  %27 = getelementptr inbounds nuw i8, ptr %0, i64 104
  %28 = load ptr, ptr %27, align 8, !tbaa !4
  %29 = getelementptr inbounds nuw i8, ptr %0, i64 112
  %30 = load ptr, ptr %29, align 8, !tbaa !4
  %31 = getelementptr inbounds nuw i8, ptr %0, i64 120
  %32 = load ptr, ptr %31, align 8, !tbaa !4
  %33 = getelementptr inbounds nuw i8, ptr %0, i64 128
  %34 = load ptr, ptr %33, align 8, !tbaa !4
  %35 = tail call ptr @l_Lean_Elab_Tactic_BVDecide_Frontend_Normalize_bv__concat__extract___lambda__1(ptr noundef %2, ptr noundef %4, ptr noundef %6, ptr noundef %8, ptr noundef %10, ptr noundef %12, ptr noundef %14, ptr noundef %16, ptr poison, ptr poison, ptr poison, ptr poison, ptr noundef %26, ptr noundef %28, ptr noundef %30, ptr noundef %32, ptr noundef %34)
  %36 = ptrtoint ptr %24 to i64
  %37 = and i64 %36, 1
  %.not = icmp eq i64 %37, 0
  br i1 %.not, label %38, label %lean_dec.exit45

38:                                               ; preds = %1
  %39 = load i32, ptr %24, align 4, !tbaa !8
  %40 = icmp sgt i32 %39, 1
  br i1 %40, label %41, label %43, !prof !11

41:                                               ; preds = %38
  %42 = add nsw i32 %39, -1
  store i32 %42, ptr %24, align 4, !tbaa !8
  br label %lean_dec.exit45

43:                                               ; preds = %38
  %.not.i = icmp eq i32 %39, 0
  br i1 %.not.i, label %lean_dec.exit45, label %44

44:                                               ; preds = %43
  tail call void @lean_dec_ref_cold(ptr noundef nonnull %24) #5
  br label %lean_dec.exit45

lean_dec.exit45:                                  ; preds = %44, %43, %41, %1
  %45 = ptrtoint ptr %22 to i64
  %46 = and i64 %45, 1
  %.not56 = icmp eq i64 %46, 0
  br i1 %.not56, label %47, label %lean_dec.exit44

47:                                               ; preds = %lean_dec.exit45
  %48 = load i32, ptr %22, align 4, !tbaa !8
  %49 = icmp sgt i32 %48, 1
  br i1 %49, label %50, label %52, !prof !11

50:                                               ; preds = %47
  %51 = add nsw i32 %48, -1
  store i32 %51, ptr %22, align 4, !tbaa !8
  br label %lean_dec.exit44

52:                                               ; preds = %47
  %.not.i46 = icmp eq i32 %48, 0
  br i1 %.not.i46, label %lean_dec.exit44, label %53

53:                                               ; preds = %52
  tail call void @lean_dec_ref_cold(ptr noundef nonnull %22) #5
  br label %lean_dec.exit44

lean_dec.exit44:                                  ; preds = %53, %52, %50, %lean_dec.exit45
  %54 = ptrtoint ptr %20 to i64
  %55 = and i64 %54, 1
  %.not57 = icmp eq i64 %55, 0
  br i1 %.not57, label %56, label %lean_dec.exit43

56:                                               ; preds = %lean_dec.exit44
  %57 = load i32, ptr %20, align 4, !tbaa !8
  %58 = icmp sgt i32 %57, 1
  br i1 %58, label %59, label %61, !prof !11

59:                                               ; preds = %56
  %60 = add nsw i32 %57, -1
  store i32 %60, ptr %20, align 4, !tbaa !8
  br label %lean_dec.exit43

61:                                               ; preds = %56
  %.not.i48 = icmp eq i32 %57, 0
  br i1 %.not.i48, label %lean_dec.exit43, label %62

62:                                               ; preds = %61
  tail call void @lean_dec_ref_cold(ptr noundef nonnull %20) #5
  br label %lean_dec.exit43

lean_dec.exit43:                                  ; preds = %62, %61, %59, %lean_dec.exit44
  %63 = ptrtoint ptr %18 to i64
  %64 = and i64 %63, 1
  %.not58 = icmp eq i64 %64, 0
  br i1 %.not58, label %65, label %lean_dec.exit42

65:                                               ; preds = %lean_dec.exit43
  %66 = load i32, ptr %18, align 4, !tbaa !8
  %67 = icmp sgt i32 %66, 1
  br i1 %67, label %68, label %70, !prof !11

68:                                               ; preds = %65
  %69 = add nsw i32 %66, -1
  store i32 %69, ptr %18, align 4, !tbaa !8
  br label %lean_dec.exit42

70:                                               ; preds = %65
  %.not.i50 = icmp eq i32 %66, 0
  br i1 %.not.i50, label %lean_dec.exit42, label %71

71:                                               ; preds = %70
  tail call void @lean_dec_ref_cold(ptr noundef nonnull %18) #5
  br label %lean_dec.exit42

lean_dec.exit42:                                  ; preds = %71, %70, %68, %lean_dec.exit43
  %72 = ptrtoint ptr %4 to i64
  %73 = and i64 %72, 1
  %.not59 = icmp eq i64 %73, 0
  br i1 %.not59, label %74, label %lean_dec.exit41

74:                                               ; preds = %lean_dec.exit42
  %75 = load i32, ptr %4, align 4, !tbaa !8
  %76 = icmp sgt i32 %75, 1
  br i1 %76, label %77, label %79, !prof !11

77:                                               ; preds = %74
  %78 = add nsw i32 %75, -1
  store i32 %78, ptr %4, align 4, !tbaa !8
  br label %lean_dec.exit41

79:                                               ; preds = %74
  %.not.i52 = icmp eq i32 %75, 0
  br i1 %.not.i52, label %lean_dec.exit41, label %80

80:                                               ; preds = %79
  tail call void @lean_dec_ref_cold(ptr noundef nonnull %4) #5
  br label %lean_dec.exit41

lean_dec.exit41:                                  ; preds = %80, %79, %77, %lean_dec.exit42
  %81 = ptrtoint ptr %2 to i64
  %82 = and i64 %81, 1
  %.not60 = icmp eq i64 %82, 0
  br i1 %.not60, label %83, label %lean_dec.exit

83:                                               ; preds = %lean_dec.exit41
  %84 = load i32, ptr %2, align 4, !tbaa !8
  %85 = icmp sgt i32 %84, 1
  br i1 %85, label %86, label %88, !prof !11

86:                                               ; preds = %83
  %87 = add nsw i32 %84, -1
  store i32 %87, ptr %2, align 4, !tbaa !8
  br label %lean_dec.exit

88:                                               ; preds = %83
  %.not.i54 = icmp eq i32 %84, 0
  br i1 %.not.i54, label %lean_dec.exit, label %89

89:                                               ; preds = %88
  tail call void @lean_dec_ref_cold(ptr noundef nonnull %2) #5
  br label %lean_dec.exit

lean_dec.exit:                                    ; preds = %89, %88, %86, %lean_dec.exit41
  ret ptr %35
}